target datalayout = "e-m:e-p270:32:32-p271:32:32-p272:64:64-i64:64-i128:128-f80:128-n8:16:32:64-S128"
target triple = "x86_64-pc-linux-gnu"

%"class.cv::utils::trace::details::Region" = type <{ ptr, i32, [4 x i8] }>
%"class.cv::ParallelLoopBody" = type { ptr }
%"class.cv::Range" = type { i32, i32 }
%"class.cv::Mat" = type { i32, i32, i32, i32, ptr, ptr, ptr, ptr, ptr, ptr, %"struct.cv::MatSize", %"struct.cv::MatStep" }
%"struct.cv::MatSize" = type { ptr }
%"struct.cv::MatStep" = type { ptr, [2 x i64] }
%"class.cv::cpu_baseline::(anonymous namespace)::BilateralFilter_32f_Invoker" = type { %"class.cv::ParallelLoopBody", i32, i32, i32, ptr, ptr, ptr, float, ptr, ptr }

@_ZTVN2cv16ParallelLoopBodyE = external unnamed_addr constant { [5 x ptr] }, align 8

; Function Attrs: mustprogress nounwind uwtable
define linkonce_odr hidden void @_ZN2cv16ParallelLoopBodyC2Ev(ptr noundef nonnull align 8 dereferenceable(8) %0) unnamed_addr #2 comdat align 2 {
  %2 = alloca ptr, align 8
  store ptr %0, ptr %2, align 8
  %3 = load ptr, ptr %2, align 8
  store ptr getelementptr inbounds inrange(-16, 24) ({ [5 x ptr] }, ptr @_ZTVN2cv16ParallelLoopBodyE, i32 0, i32 0, i32 2), ptr %3, align 8
  ret void
}

; Function Attrs: mustprogress nounwind uwtable
define internal void @_ZN2cv12cpu_baseline12_GLOBAL__N_127BilateralFilter_32f_InvokerD2Ev(ptr noundef nonnull align 8 dereferenceable(72) %0) unnamed_addr #2 align 2 {
  %2 = alloca ptr, align 8
  store ptr %0, ptr %2, align 8
  %3 = load ptr, ptr %2, align 8
  call void @_ZN2cv16ParallelLoopBodyD2Ev(ptr noundef nonnull align 8 dereferenceable(8) %3) #12
  ret void
}

; Function Attrs: mustprogress nounwind uwtable
define linkonce_odr hidden void @_ZN2cv5RangeC2Eii(ptr noundef nonnull align 4 dereferenceable(8) %0, i32 noundef %1, i32 noundef %2) unnamed_addr #2 comdat align 2 {
  %4 = alloca ptr, align 8
  %5 = alloca i32, align 4
  %6 = alloca i32, align 4
  store ptr %0, ptr %4, align 8
  store i32 %1, ptr %5, align 4
  store i32 %2, ptr %6, align 4
  %7 = load ptr, ptr %4, align 8
  %8 = getelementptr inbounds %"class.cv::Range", ptr %7, i32 0, i32 0
  %9 = load i32, ptr %5, align 4
  store i32 %9, ptr %8, align 4
  %10 = getelementptr inbounds %"class.cv::Range", ptr %7, i32 0, i32 1
  %11 = load i32, ptr %6, align 4
  store i32 %11, ptr %10, align 4
  ret void
}

; Function Attrs: mustprogress nounwind uwtable
define internal void @_ZN2cv12cpu_baseline12_GLOBAL__N_127BilateralFilter_32f_InvokerC2EiiiPiRKNS_3MatERS4_fPfS8_(ptr noundef nonnull align 8 dereferenceable(72) %0, i32 noundef %1, i32 noundef %2, i32 noundef %3, ptr noundef %4, ptr noundef nonnull align 8 dereferenceable(96) %5, ptr noundef nonnull align 8 dereferenceable(96) %6, float noundef %7, ptr noundef %8, ptr noundef %9) unnamed_addr #2 align 2 {
  %11 = alloca ptr, align 8
  %12 = alloca i32, align 4
  %13 = alloca i32, align 4
  %14 = alloca i32, align 4
  %15 = alloca ptr, align 8
  %16 = alloca ptr, align 8
  %17 = alloca ptr, align 8
  %18 = alloca float, align 4
  %19 = alloca ptr, align 8
  %20 = alloca ptr, align 8
  store ptr %0, ptr %11, align 8
  store i32 %1, ptr %12, align 4
  store i32 %2, ptr %13, align 4
  store i32 %3, ptr %14, align 4
  store ptr %4, ptr %15, align 8
  store ptr %5, ptr %16, align 8
  store ptr %6, ptr %17, align 8
  store float %7, ptr %18, align 4
  store ptr %8, ptr %19, align 8
  store ptr %9, ptr %20, align 8
  %21 = load ptr, ptr %11, align 8
  call void @_ZN2cv16ParallelLoopBodyC2Ev(ptr noundef nonnull align 8 dereferenceable(8) %21) #12
  store ptr getelementptr inbounds inrange(-16, 24) ({ [5 x ptr] }, ptr @_ZTVN2cv12cpu_baseline12_GLOBAL__N_127BilateralFilter_32f_InvokerE, i32 0, i32 0, i32 2), ptr %21, align 8
  %22 = getelementptr inbounds %"class.cv::cpu_baseline::(anonymous namespace)::BilateralFilter_32f_Invoker", ptr %21, i32 0, i32 1
  %23 = load i32, ptr %12, align 4
  store i32 %23, ptr %22, align 8
  %24 = getelementptr inbounds %"class.cv::cpu_baseline::(anonymous namespace)::BilateralFilter_32f_Invoker", ptr %21, i32 0, i32 2
  %25 = load i32, ptr %13, align 4
  store i32 %25, ptr %24, align 4
  %26 = getelementptr inbounds %"class.cv::cpu_baseline::(anonymous namespace)::BilateralFilter_32f_Invoker", ptr %21, i32 0, i32 3
  %27 = load i32, ptr %14, align 4
  store i32 %27, ptr %26, align 8
  %28 = getelementptr inbounds %"class.cv::cpu_baseline::(anonymous namespace)::BilateralFilter_32f_Invoker", ptr %21, i32 0, i32 4
  %29 = load ptr, ptr %15, align 8
  store ptr %29, ptr %28, align 8
  %30 = getelementptr inbounds %"class.cv::cpu_baseline::(anonymous namespace)::BilateralFilter_32f_Invoker", ptr %21, i32 0, i32 5
  %31 = load ptr, ptr %16, align 8
  store ptr %31, ptr %30, align 8
  %32 = getelementptr inbounds %"class.cv::cpu_baseline::(anonymous namespace)::BilateralFilter_32f_Invoker", ptr %21, i32 0, i32 6
  %33 = load ptr, ptr %17, align 8
  store ptr %33, ptr %32, align 8
  %34 = getelementptr inbounds %"class.cv::cpu_baseline::(anonymous namespace)::BilateralFilter_32f_Invoker", ptr %21, i32 0, i32 7
  %35 = load float, ptr %18, align 4
  store float %35, ptr %34, align 8
  %36 = getelementptr inbounds %"class.cv::cpu_baseline::(anonymous namespace)::BilateralFilter_32f_Invoker", ptr %21, i32 0, i32 8
  %37 = load ptr, ptr %19, align 8
  store ptr %37, ptr %36, align 8
  %38 = getelementptr inbounds %"class.cv::cpu_baseline::(anonymous namespace)::BilateralFilter_32f_Invoker", ptr %21, i32 0, i32 9
  %39 = load ptr, ptr %20, align 8
  store ptr %39, ptr %38, align 8
  ret void
}

; Function Attrs: mustprogress uwtable
define hidden void @_ZN2cv12cpu_baseline26bilateralFilterInvoker_32fEiiiPiRKNS_3MatERS2_fPfS6_(i32 noundef %0, i32 noundef %1, i32 noundef %2, ptr noundef %3, ptr noundef nonnull align 8 dereferenceable(96) %4, ptr noundef nonnull align 8 dereferenceable(96) %5, float noundef %6, ptr noundef %7, ptr noundef %8) #0 personality ptr @__gxx_personality_v0 {
  %10 = alloca i32, align 4
  %11 = alloca i32, align 4
  %12 = alloca i32, align 4
  %13 = alloca ptr, align 8
  %14 = alloca ptr, align 8
  %15 = alloca ptr, align 8
  %16 = alloca float, align 4
  %17 = alloca ptr, align 8
  %18 = alloca ptr, align 8
  %19 = alloca %"class.cv::utils::trace::details::Region", align 8
  %20 = alloca %"class.cv::cpu_baseline::(anonymous namespace)::BilateralFilter_32f_Invoker", align 8
  %21 = alloca ptr, align 8
  %22 = alloca i32, align 4
  %23 = alloca %"class.cv::Range", align 4
  store i32 %0, ptr %10, align 4
  store i32 %1, ptr %11, align 4
  store i32 %2, ptr %12, align 4
  store ptr %3, ptr %13, align 8
  store ptr %4, ptr %14, align 8
  store ptr %5, ptr %15, align 8
  store float %6, ptr %16, align 4
  store ptr %7, ptr %17, align 8
  store ptr %8, ptr %18, align 8
  call void @_ZN2cv5utils5trace7details6RegionC1ERKNS3_21LocationStaticStorageE(ptr noundef nonnull align 8 dereferenceable(12) %19, ptr noundef nonnull align 8 dereferenceable(32) @_ZZN2cv12cpu_baseline26bilateralFilterInvoker_32fEiiiPiRKNS_3MatERS2_fPfS6_E26__cv_trace_location_fn1032)
  %24 = load i32, ptr %10, align 4
  %25 = load i32, ptr %11, align 4
  %26 = load i32, ptr %12, align 4
  %27 = load ptr, ptr %13, align 8
  %28 = load ptr, ptr %14, align 8
  %29 = load ptr, ptr %15, align 8
  %30 = load float, ptr %16, align 4
  %31 = load ptr, ptr %17, align 8
  %32 = load ptr, ptr %18, align 8
  invoke void @_ZN2cv12cpu_baseline12_GLOBAL__N_127BilateralFilter_32f_InvokerC2EiiiPiRKNS_3MatERS4_fPfS8_(ptr noundef nonnull align 8 dereferenceable(72) %20, i32 noundef %24, i32 noundef %25, i32 noundef %26, ptr noundef %27, ptr noundef nonnull align 8 dereferenceable(96) %28, ptr noundef nonnull align 8 dereferenceable(96) %29, float noundef %30, ptr noundef %31, ptr noundef %32)
          to label %33 unwind label %44

33:                                               ; preds = %9
  %34 = load ptr, ptr %15, align 8
  %35 = getelementptr inbounds %"class.cv::Mat", ptr %34, i32 0, i32 2
  %36 = load i32, ptr %35, align 8
  invoke void @_ZN2cv5RangeC2Eii(ptr noundef nonnull align 4 dereferenceable(8) %23, i32 noundef 0, i32 noundef %36)
          to label %37 unwind label %48

37:                                               ; preds = %33
  %38 = load ptr, ptr %15, align 8
  %39 = invoke noundef i64 @_ZNK2cv3Mat5totalEv(ptr noundef nonnull align 8 dereferenceable(96) %38)
          to label %40 unwind label %48

40:                                               ; preds = %37
  %41 = uitofp i64 %39 to double
  %42 = fdiv double %41, 6.553600e+04
  invoke void @_ZN2cv13parallel_for_ERKNS_5RangeERKNS_16ParallelLoopBodyEd(ptr noundef nonnull align 4 dereferenceable(8) %23, ptr noundef nonnull align 8 dereferenceable(8) %20, double noundef %42)
          to label %43 unwind label %48

43:                                               ; preds = %40
  call void @_ZN2cv12cpu_baseline12_GLOBAL__N_127BilateralFilter_32f_InvokerD2Ev(ptr noundef nonnull align 8 dereferenceable(72) %20) #12
  call void @_ZN2cv5utils5trace7details6RegionD2Ev(ptr noundef nonnull align 8 dereferenceable(12) %19) #12
  ret void

44:                                               ; preds = %9
  %45 = landingpad { ptr, i32 }
          cleanup
  %46 = extractvalue { ptr, i32 } %45, 0
  store ptr %46, ptr %21, align 8
  %47 = extractvalue { ptr, i32 } %45, 1
  store i32 %47, ptr %22, align 4
  br label %52

48:                                               ; preds = %40, %37, %33
  %49 = landingpad { ptr, i32 }
          cleanup
  %50 = extractvalue { ptr, i32 } %49, 0
  store ptr %50, ptr %21, align 8
  %51 = extractvalue { ptr, i32 } %49, 1
  store i32 %51, ptr %22, align 4
  call void @_ZN2cv12cpu_baseline12_GLOBAL__N_127BilateralFilter_32f_InvokerD2Ev(ptr noundef nonnull align 8 dereferenceable(72) %20) #12
  br label %52

52:                                               ; preds = %48, %44
  call void @_ZN2cv5utils5trace7details6RegionD2Ev(ptr noundef nonnull align 8 dereferenceable(12) %19) #12
  br label %53

53:                                               ; preds = %52
  %54 = load ptr, ptr %21, align 8
  %55 = load i32, ptr %22, align 4
  %56 = insertvalue { ptr, i32 } poison, ptr %54, 0
  %57 = insertvalue { ptr, i32 } %56, i32 %55, 1
  resume { ptr, i32 } %57
}