; Function Attrs: mustprogress uwtable
define hidden void @_ZN2cv12cpu_baseline26bilateralFilterInvoker_32fEiiiPiRKNS_3MatERS2_fPfS6_(i32 noundef %0, i32 noundef %1, i32 noundef %2, ptr noundef %3, ptr noundef nonnull align 8 dereferenceable(96) %4, ptr noundef nonnull align 8 dereferenceable(96) %5, float noundef %6, ptr noundef %7, ptr noundef %8) local_unnamed_addr #0 personality ptr @__gxx_personality_v0 {
  %10 = alloca %"class.cv::utils::trace::details::Region", align 8
  %11 = alloca %"class.cv::cpu_baseline::(anonymous namespace)::BilateralFilter_32f_Invoker", align 8
  %12 = alloca %"class.cv::Range", align 4
  call void @_ZN2cv5utils5trace7details6RegionC1ERKNS3_21LocationStaticStorageE(ptr noundef nonnull align 8 dereferenceable(12) %10, ptr noundef nonnull align 8 dereferenceable(32) @_ZZN2cv12cpu_baseline26bilateralFilterInvoker_32fEiiiPiRKNS_3MatERS2_fPfS6_E26__cv_trace_location_fn1032)
  store ptr getelementptr inbounds inrange(-16, 24) (i8, ptr @_ZTVN2cv12cpu_baseline12_GLOBAL__N_127BilateralFilter_32f_InvokerE, i64 16), ptr %11, align 8
  %13 = getelementptr inbounds i8, ptr %11, i64 8
  store i32 %0, ptr %13, align 8
  %14 = getelementptr inbounds i8, ptr %11, i64 12
  store i32 %1, ptr %14, align 4
  %15 = getelementptr inbounds i8, ptr %11, i64 16
  store i32 %2, ptr %15, align 8
  %16 = getelementptr inbounds i8, ptr %11, i64 24
  store ptr %3, ptr %16, align 8
  %17 = getelementptr inbounds i8, ptr %11, i64 32
  store ptr %4, ptr %17, align 8
  %18 = getelementptr inbounds i8, ptr %11, i64 40
  store ptr %5, ptr %18, align 8
  %19 = getelementptr inbounds i8, ptr %11, i64 48
  store float %6, ptr %19, align 8
  %20 = getelementptr inbounds i8, ptr %11, i64 56
  store ptr %7, ptr %20, align 8
  %21 = getelementptr inbounds i8, ptr %11, i64 64
  store ptr %8, ptr %21, align 8
  %22 = getelementptr inbounds i8, ptr %5, i64 8
  %23 = load i32, ptr %22, align 8
  store i32 0, ptr %12, align 4
  %24 = getelementptr inbounds i8, ptr %12, i64 4
  store i32 %23, ptr %24, align 4
  %25 = invoke noundef i64 @_ZNK2cv3Mat5totalEv(ptr noundef nonnull align 8 dereferenceable(96) %5)
          to label %26 unwind label %36

26:                                               ; preds = %9
  %27 = uitofp i64 %25 to double
  %28 = fmul double %27, 0x3EF0000000000000
  invoke void @_ZN2cv13parallel_for_ERKNS_5RangeERKNS_16ParallelLoopBodyEd(ptr noundef nonnull align 4 dereferenceable(8) %12, ptr noundef nonnull align 8 dereferenceable(8) %11, double noundef %28)
          to label %29 unwind label %36

29:                                               ; preds = %26
  call void @_ZN2cv16ParallelLoopBodyD2Ev(ptr noundef nonnull align 8 dereferenceable(8) %11) #15
  %30 = getelementptr inbounds i8, ptr %10, i64 8
  %31 = load i32, ptr %30, align 8
  %.not.i = icmp eq i32 %31, 0
  br i1 %.not.i, label %_ZN2cv5utils5trace7details6RegionD2Ev.exit, label %32

32:                                               ; preds = %29
  invoke void @_ZN2cv5utils5trace7details6Region7destroyEv(ptr noundef nonnull align 8 dereferenceable(12) %10)
          to label %_ZN2cv5utils5trace7details6RegionD2Ev.exit unwind label %33

33:                                               ; preds = %32
  %34 = landingpad { ptr, i32 }
          catch ptr null
  %35 = extractvalue { ptr, i32 } %34, 0
  call void @__clang_call_terminate(ptr %35) #16
  unreachable

_ZN2cv5utils5trace7details6RegionD2Ev.exit:       ; preds = %29, %32
  ret void

36:                                               ; preds = %26, %9
  %37 = landingpad { ptr, i32 }
          cleanup
  call void @_ZN2cv16ParallelLoopBodyD2Ev(ptr noundef nonnull align 8 dereferenceable(8) %11) #15
  call void @_ZN2cv5utils5trace7details6RegionD2Ev(ptr noundef nonnull align 8 dereferenceable(12) %10) #15
  resume { ptr, i32 } %37
}